target datalayout = "e-m:e-p270:32:32-p271:32:32-p272:64:64-i64:64-i128:128-f80:128-n8:16:32:64-S128"
target triple = "x86_64-pc-linux-gnu"

%struct.lua_State = type { %struct.GCRef, i8, i8, i8, i8, %struct.MRef, %struct.GCRef, ptr, ptr, %struct.MRef, %struct.MRef, %struct.GCRef, %struct.GCRef, ptr, i32 }
%struct.MRef = type { i64 }
%struct.GCRef = type { i64 }
%struct.lua_Debug = type { i32, ptr, ptr, ptr, ptr, i32, i32, i32, i32, [60 x i8], i32 }

@.str.45 = private unnamed_addr constant [6 x i8] c"_NAME\00", align 1
@.str.46 = private unnamed_addr constant [3 x i8] c"_M\00", align 1
@.str.47 = private unnamed_addr constant [9 x i8] c"_PACKAGE\00", align 1
@.str.48 = private unnamed_addr constant [2 x i8] c"f\00", align 1
@.str.49 = private unnamed_addr constant [40 x i8] c"'module' not called from a Lua function\00", align 1

; Function Attrs: nounwind uwtable
define internal void @dooptions(ptr noundef %0, i32 noundef %1) #0 {
  %3 = alloca ptr, align 8
  %4 = alloca i32, align 4
  %5 = alloca i32, align 4
  store ptr %0, ptr %3, align 8, !tbaa !4
  store i32 %1, ptr %4, align 4, !tbaa !9
  call void @llvm.lifetime.start.p0(i64 4, ptr %5) #5
  store i32 2, ptr %5, align 4, !tbaa !9
  br label %6

6:                                                ; preds = %15, %2
  %7 = load i32, ptr %5, align 4, !tbaa !9
  %8 = load i32, ptr %4, align 4, !tbaa !9
  %9 = icmp sle i32 %7, %8
  br i1 %9, label %10, label %18

10:                                               ; preds = %6
  %11 = load ptr, ptr %3, align 8, !tbaa !4
  %12 = load i32, ptr %5, align 4, !tbaa !9
  call void @lua_pushvalue(ptr noundef %11, i32 noundef %12)
  %13 = load ptr, ptr %3, align 8, !tbaa !4
  call void @lua_pushvalue(ptr noundef %13, i32 noundef -2)
  %14 = load ptr, ptr %3, align 8, !tbaa !4
  call void @lua_call(ptr noundef %14, i32 noundef 1, i32 noundef 0)
  br label %15

15:                                               ; preds = %10
  %16 = load i32, ptr %5, align 4, !tbaa !9
  %17 = add nsw i32 %16, 1
  store i32 %17, ptr %5, align 4, !tbaa !9
  br label %6, !llvm.loop !28

18:                                               ; preds = %6
  call void @llvm.lifetime.end.p0(i64 4, ptr %5) #5
  ret void
}

; Function Attrs: nounwind uwtable
define internal void @setfenv(ptr noundef %0) #0 {
  %2 = alloca ptr, align 8
  %3 = alloca %struct.lua_Debug, align 8
  store ptr %0, ptr %2, align 8, !tbaa !4
  call void @llvm.lifetime.start.p0(i64 120, ptr %3) #5
  %4 = load ptr, ptr %2, align 8, !tbaa !4
  %5 = call i32 @lua_getstack(ptr noundef %4, i32 noundef 1, ptr noundef %3)
  %6 = icmp eq i32 %5, 0
  br i1 %6, label %15, label %7

7:                                                ; preds = %1
  %8 = load ptr, ptr %2, align 8, !tbaa !4
  %9 = call i32 @lua_getinfo(ptr noundef %8, ptr noundef @.str.48, ptr noundef %3)
  %10 = icmp eq i32 %9, 0
  br i1 %10, label %15, label %11

11:                                               ; preds = %7
  %12 = load ptr, ptr %2, align 8, !tbaa !4
  %13 = call i32 @lua_iscfunction(ptr noundef %12, i32 noundef -1)
  %14 = icmp ne i32 %13, 0
  br i1 %14, label %15, label %18

15:                                               ; preds = %11, %7, %1
  %16 = load ptr, ptr %2, align 8, !tbaa !4
  %17 = call i32 (ptr, ptr, ...) @luaL_error(ptr noundef %16, ptr noundef @.str.49)
  br label %18

18:                                               ; preds = %15, %11
  %19 = load ptr, ptr %2, align 8, !tbaa !4
  call void @lua_pushvalue(ptr noundef %19, i32 noundef -2)
  %20 = load ptr, ptr %2, align 8, !tbaa !4
  %21 = call i32 @lua_setfenv(ptr noundef %20, i32 noundef -2)
  %22 = load ptr, ptr %2, align 8, !tbaa !4
  call void @lua_settop(ptr noundef %22, i32 noundef -2)
  call void @llvm.lifetime.end.p0(i64 120, ptr %3) #5
  ret void
}

; Function Attrs: nounwind uwtable
define internal void @modinit(ptr noundef %0, ptr noundef %1) #0 {
  %3 = alloca ptr, align 8
  %4 = alloca ptr, align 8
  %5 = alloca ptr, align 8
  store ptr %0, ptr %3, align 8, !tbaa !4
  store ptr %1, ptr %4, align 8, !tbaa !14
  call void @llvm.lifetime.start.p0(i64 8, ptr %5) #5
  %6 = load ptr, ptr %3, align 8, !tbaa !4
  call void @lua_pushvalue(ptr noundef %6, i32 noundef -1)
  %7 = load ptr, ptr %3, align 8, !tbaa !4
  call void @lua_setfield(ptr noundef %7, i32 noundef -2, ptr noundef @.str.46)
  %8 = load ptr, ptr %3, align 8, !tbaa !4
  %9 = load ptr, ptr %4, align 8, !tbaa !14
  call void @lua_pushstring(ptr noundef %8, ptr noundef %9)
  %10 = load ptr, ptr %3, align 8, !tbaa !4
  call void @lua_setfield(ptr noundef %10, i32 noundef -2, ptr noundef @.str.45)
  %11 = load ptr, ptr %4, align 8, !tbaa !14
  %12 = call ptr @strrchr(ptr noundef %11, i32 noundef 46) #6
  store ptr %12, ptr %5, align 8, !tbaa !14
  %13 = load ptr, ptr %5, align 8, !tbaa !14
  %14 = icmp eq ptr %13, null
  br i1 %14, label %15, label %17

15:                                               ; preds = %2
  %16 = load ptr, ptr %4, align 8, !tbaa !14
  store ptr %16, ptr %5, align 8, !tbaa !14
  br label %20

17:                                               ; preds = %2
  %18 = load ptr, ptr %5, align 8, !tbaa !14
  %19 = getelementptr inbounds nuw i8, ptr %18, i32 1
  store ptr %19, ptr %5, align 8, !tbaa !14
  br label %20

20:                                               ; preds = %17, %15
  %21 = load ptr, ptr %3, align 8, !tbaa !4
  %22 = load ptr, ptr %4, align 8, !tbaa !14
  %23 = load ptr, ptr %5, align 8, !tbaa !14
  %24 = load ptr, ptr %4, align 8, !tbaa !14
  %25 = ptrtoint ptr %23 to i64
  %26 = ptrtoint ptr %24 to i64
  %27 = sub i64 %25, %26
  call void @lua_pushlstring(ptr noundef %21, ptr noundef %22, i64 noundef %27)
  %28 = load ptr, ptr %3, align 8, !tbaa !4
  call void @lua_setfield(ptr noundef %28, i32 noundef -2, ptr noundef @.str.47)
  call void @llvm.lifetime.end.p0(i64 8, ptr %5) #5
  ret void
}

; Function Attrs: nounwind uwtable
define internal i32 @lj_cf_package_module(ptr noundef %0) #0 {
  %2 = alloca ptr, align 8
  %3 = alloca ptr, align 8
  %4 = alloca i32, align 4
  store ptr %0, ptr %2, align 8, !tbaa !4
  call void @llvm.lifetime.start.p0(i64 8, ptr %3) #5
  %5 = load ptr, ptr %2, align 8, !tbaa !4
  %6 = call ptr @luaL_checklstring(ptr noundef %5, i32 noundef 1, ptr noundef null)
  store ptr %6, ptr %3, align 8, !tbaa !14
  call void @llvm.lifetime.start.p0(i64 4, ptr %4) #5
  %7 = load ptr, ptr %2, align 8, !tbaa !4
  %8 = getelementptr inbounds nuw %struct.lua_State, ptr %7, i32 0, i32 8
  %9 = load ptr, ptr %8, align 8, !tbaa !21
  %10 = load ptr, ptr %2, align 8, !tbaa !4
  %11 = getelementptr inbounds nuw %struct.lua_State, ptr %10, i32 0, i32 7
  %12 = load ptr, ptr %11, align 8, !tbaa !27
  %13 = ptrtoint ptr %9 to i64
  %14 = ptrtoint ptr %12 to i64
  %15 = sub i64 %13, %14
  %16 = sdiv exact i64 %15, 8
  %17 = trunc i64 %16 to i32
  store i32 %17, ptr %4, align 4, !tbaa !9
  %18 = load ptr, ptr %2, align 8, !tbaa !4
  %19 = load ptr, ptr %3, align 8, !tbaa !14
  call void @luaL_pushmodule(ptr noundef %18, ptr noundef %19, i32 noundef 1)
  %20 = load ptr, ptr %2, align 8, !tbaa !4
  call void @lua_getfield(ptr noundef %20, i32 noundef -1, ptr noundef @.str.45)
  %21 = load ptr, ptr %2, align 8, !tbaa !4
  %22 = call i32 @lua_type(ptr noundef %21, i32 noundef -1)
  %23 = icmp eq i32 %22, 0
  br i1 %23, label %26, label %24

24:                                               ; preds = %1
  %25 = load ptr, ptr %2, align 8, !tbaa !4
  call void @lua_settop(ptr noundef %25, i32 noundef -2)
  br label %30

26:                                               ; preds = %1
  %27 = load ptr, ptr %2, align 8, !tbaa !4
  call void @lua_settop(ptr noundef %27, i32 noundef -2)
  %28 = load ptr, ptr %2, align 8, !tbaa !4
  %29 = load ptr, ptr %3, align 8, !tbaa !14
  call void @modinit(ptr noundef %28, ptr noundef %29)
  br label %30

30:                                               ; preds = %26, %24
  %31 = load ptr, ptr %2, align 8, !tbaa !4
  call void @lua_pushvalue(ptr noundef %31, i32 noundef -1)
  %32 = load ptr, ptr %2, align 8, !tbaa !4
  call void @setfenv(ptr noundef %32)
  %33 = load ptr, ptr %2, align 8, !tbaa !4
  %34 = load i32, ptr %4, align 4, !tbaa !9
  call void @dooptions(ptr noundef %33, i32 noundef %34)
  call void @llvm.lifetime.end.p0(i64 4, ptr %4) #5
  call void @llvm.lifetime.end.p0(i64 8, ptr %3) #5
  ret i32 0
}