; Function Attrs: nounwind uwtable
define internal noundef i32 @lj_cf_package_module(ptr noundef %0) #0 {
  %2 = alloca %struct.lua_Debug, align 8
  %3 = tail call ptr @luaL_checklstring(ptr noundef %0, i32 noundef 1, ptr noundef null) #7
  %4 = getelementptr inbounds nuw i8, ptr %0, i64 40
  %5 = load ptr, ptr %4, align 8, !tbaa !12
  %6 = getelementptr inbounds nuw i8, ptr %0, i64 32
  %7 = load ptr, ptr %6, align 8, !tbaa !19
  tail call void @luaL_pushmodule(ptr noundef %0, ptr noundef %3, i32 noundef 1) #7
  tail call void @lua_getfield(ptr noundef %0, i32 noundef -1, ptr noundef nonnull @.str.45) #7
  %8 = tail call i32 @lua_type(ptr noundef %0, i32 noundef -1) #7
  %9 = icmp eq i32 %8, 0
  tail call void @lua_settop(ptr noundef nonnull %0, i32 noundef -2) #7
  br i1 %9, label %10, label %17

10:                                               ; preds = %1
  tail call void @lua_pushvalue(ptr noundef nonnull %0, i32 noundef -1) #7
  tail call void @lua_setfield(ptr noundef nonnull %0, i32 noundef -2, ptr noundef nonnull @.str.46) #7
  tail call void @lua_pushstring(ptr noundef nonnull %0, ptr noundef %3) #7
  tail call void @lua_setfield(ptr noundef nonnull %0, i32 noundef -2, ptr noundef nonnull @.str.45) #7
  %11 = tail call ptr @strrchr(ptr noundef nonnull dereferenceable(1) %3, i32 noundef 46) #8
  %12 = icmp eq ptr %11, null
  %13 = getelementptr inbounds nuw i8, ptr %11, i64 1
  %.0.i = select i1 %12, ptr %3, ptr %13
  %14 = ptrtoint ptr %.0.i to i64
  %15 = ptrtoint ptr %3 to i64
  %16 = sub i64 %14, %15
  tail call void @lua_pushlstring(ptr noundef nonnull %0, ptr noundef nonnull %3, i64 noundef %16) #7
  tail call void @lua_setfield(ptr noundef nonnull %0, i32 noundef -2, ptr noundef nonnull @.str.47) #7
  br label %17

17:                                               ; preds = %1, %10
  %18 = ptrtoint ptr %5 to i64
  %19 = ptrtoint ptr %7 to i64
  %20 = sub i64 %18, %19
  %21 = lshr exact i64 %20, 3
  %22 = trunc i64 %21 to i32
  tail call void @lua_pushvalue(ptr noundef nonnull %0, i32 noundef -1) #7
  call void @llvm.lifetime.start.p0(i64 120, ptr nonnull %2) #7
  %23 = call i32 @lua_getstack(ptr noundef nonnull %0, i32 noundef 1, ptr noundef nonnull %2) #7
  %24 = icmp eq i32 %23, 0
  br i1 %24, label %30, label %25

25:                                               ; preds = %17
  %26 = call i32 @lua_getinfo(ptr noundef nonnull %0, ptr noundef nonnull @.str.48, ptr noundef nonnull %2) #7
  %27 = icmp eq i32 %26, 0
  br i1 %27, label %30, label %28

28:                                               ; preds = %25
  %29 = call i32 @lua_iscfunction(ptr noundef nonnull %0, i32 noundef -1) #7
  %.not.i = icmp eq i32 %29, 0
  br i1 %.not.i, label %setfenv.exit, label %30

30:                                               ; preds = %28, %25, %17
  %31 = call i32 (ptr, ptr, ...) @luaL_error(ptr noundef nonnull %0, ptr noundef nonnull @.str.49) #7
  br label %setfenv.exit

setfenv.exit:                                     ; preds = %28, %30
  call void @lua_pushvalue(ptr noundef nonnull %0, i32 noundef -2) #7
  %32 = call i32 @lua_setfenv(ptr noundef nonnull %0, i32 noundef -2) #7
  call void @lua_settop(ptr noundef nonnull %0, i32 noundef -2) #7
  call void @llvm.lifetime.end.p0(i64 120, ptr nonnull %2) #7
  %.not6.i = icmp slt i32 %22, 2
  br i1 %.not6.i, label %dooptions.exit, label %.lr.ph.i

.lr.ph.i:                                         ; preds = %setfenv.exit, %.lr.ph.i
  %.07.i = phi i32 [ %33, %.lr.ph.i ], [ 2, %setfenv.exit ]
  call void @lua_pushvalue(ptr noundef nonnull %0, i32 noundef %.07.i) #7
  call void @lua_pushvalue(ptr noundef nonnull %0, i32 noundef -2) #7
  call void @lua_call(ptr noundef nonnull %0, i32 noundef 1, i32 noundef 0) #7
  %33 = add nuw i32 %.07.i, 1
  %exitcond.not.i = icmp eq i32 %.07.i, %22
  br i1 %exitcond.not.i, label %dooptions.exit, label %.lr.ph.i, !llvm.loop !20

dooptions.exit:                                   ; preds = %.lr.ph.i, %setfenv.exit
  ret i32 0
}